target datalayout = "e-m:e-p270:32:32-p271:32:32-p272:64:64-i64:64-i128:128-f80:128-n8:16:32:64-S128"
target triple = "x86_64-pc-linux-gnu"

; Function Attrs: nounwind uwtable
define internal i32 @big5_code_to_mbclen(i32 noundef %0) #0 {
  %2 = alloca i32, align 4
  %3 = alloca i32, align 4
  store i32 %0, ptr %3, align 4, !tbaa !10
  %4 = load i32, ptr %3, align 4, !tbaa !10
  %5 = and i32 %4, -65536
  %6 = icmp ne i32 %5, 0
  br i1 %6, label %7, label %8

7:                                                ; preds = %1
  store i32 -400, ptr %2, align 4
  br label %32

8:                                                ; preds = %1
  %9 = load i32, ptr %3, align 4, !tbaa !10
  %10 = and i32 %9, 65280
  %11 = icmp ne i32 %10, 0
  br i1 %11, label %12, label %22

12:                                               ; preds = %8
  %13 = load i32, ptr %3, align 4, !tbaa !10
  %14 = lshr i32 %13, 8
  %15 = and i32 %14, 255
  %16 = sext i32 %15 to i64
  %17 = getelementptr inbounds [256 x i32], ptr @EncLen_BIG5, i64 0, i64 %16
  %18 = load i32, ptr %17, align 4, !tbaa !10
  %19 = icmp eq i32 %18, 2
  br i1 %19, label %20, label %21

20:                                               ; preds = %12
  store i32 2, ptr %2, align 4
  br label %32

21:                                               ; preds = %12
  br label %31

22:                                               ; preds = %8
  %23 = load i32, ptr %3, align 4, !tbaa !10
  %24 = and i32 %23, 255
  %25 = sext i32 %24 to i64
  %26 = getelementptr inbounds [256 x i32], ptr @EncLen_BIG5, i64 0, i64 %25
  %27 = load i32, ptr %26, align 4, !tbaa !10
  %28 = icmp eq i32 %27, 1
  br i1 %28, label %29, label %30

29:                                               ; preds = %22
  store i32 1, ptr %2, align 4
  br label %32

30:                                               ; preds = %22
  br label %31

31:                                               ; preds = %30, %21
  store i32 -400, ptr %2, align 4
  br label %32

32:                                               ; preds = %31, %29, %20, %7
  %33 = load i32, ptr %2, align 4
  ret i32 %33
}