; Function Attrs: mustprogress nofree norecurse nosync nounwind willreturn memory(none) uwtable
define internal range(i32 -400, 3) i32 @big5_code_to_mbclen(i32 noundef %0) #3 {
  %.not = icmp ult i32 %0, 65536
  br i1 %.not, label %2, label %12

2:                                                ; preds = %1
  %.not5 = icmp samesign ult i32 %0, 256
  br i1 %.not5, label %7, label %3

3:                                                ; preds = %2
  %4 = lshr i32 %0, 8
  %5 = add nsw i32 %4, -161
  %6 = icmp ult i32 %5, 94
  br i1 %6, label %12, label %11

7:                                                ; preds = %2
  %8 = zext nneg i32 %0 to i64
  %9 = add nsw i64 %8, -255
  %10 = icmp ult i64 %9, -94
  br i1 %10, label %12, label %11

11:                                               ; preds = %7, %3
  br label %12

12:                                               ; preds = %7, %3, %1, %11
  %.0 = phi i32 [ -400, %11 ], [ -400, %1 ], [ 2, %3 ], [ 1, %7 ]
  ret i32 %.0
}